target datalayout = "e-m:e-p270:32:32-p271:32:32-p272:64:64-i64:64-i128:128-f80:128-n8:16:32:64-S128"
target triple = "x86_64-pc-linux-gnu"

%struct._sccp_user_t = type { i32, ptr, ptr, i32, i8, ptr }

; Function Attrs: null_pointer_is_valid sspstrong uwtable
define internal void @sccp_users_called_ssn_set_cb(ptr noundef %0, ptr noundef %1, i32 noundef %2, ptr noundef %3, ptr noundef %4) #0 {
  %6 = alloca ptr, align 8
  %7 = alloca ptr, align 8
  %8 = alloca i32, align 4
  %9 = alloca ptr, align 8
  %10 = alloca ptr, align 8
  %11 = alloca ptr, align 8
  store ptr %0, ptr %6, align 8
  store ptr %1, ptr %7, align 8
  store i32 %2, ptr %8, align 4
  store ptr %3, ptr %9, align 8
  store ptr %4, ptr %10, align 8
  call void @llvm.lifetime.start.p0(i64 8, ptr %11) #10
  %12 = load ptr, ptr %7, align 8
  %13 = load i32, ptr %8, align 4
  %14 = zext i32 %13 to i64
  %15 = call noalias ptr @g_strndup(ptr noundef %12, i64 noundef %14)
  store ptr %15, ptr %11, align 8
  %16 = load ptr, ptr %6, align 8
  %17 = getelementptr inbounds nuw %struct._sccp_user_t, ptr %16, i32 0, i32 2
  %18 = load ptr, ptr %11, align 8
  %19 = load ptr, ptr %10, align 8
  %20 = ptrtoint ptr %19 to i64
  %21 = trunc i64 %20 to i32
  %22 = call i32 @range_convert_str(ptr noundef null, ptr noundef %17, ptr noundef %18, i32 noundef %21)
  %23 = load ptr, ptr %11, align 8
  call void @g_free(ptr noundef %23)
  call void @llvm.lifetime.end.p0(i64 8, ptr %11) #10
  ret void
}