; Function Attrs: null_pointer_is_valid sspstrong uwtable
define internal void @sccp_users_called_ssn_set_cb(ptr noundef %0, ptr noundef %1, i32 noundef %2, ptr readnone captures(none) %3, ptr noundef %4) #0 {
  %6 = zext i32 %2 to i64
  %7 = tail call noalias ptr @g_strndup(ptr noundef %1, i64 noundef %6)
  %8 = getelementptr inbounds nuw i8, ptr %0, i64 16
  %9 = ptrtoint ptr %4 to i64
  %10 = trunc i64 %9 to i32
  %11 = tail call i32 @range_convert_str(ptr noundef null, ptr noundef nonnull %8, ptr noundef %7, i32 noundef %10)
  tail call void @g_free(ptr noundef %7)
  ret void
}